target datalayout = "e-m:e-p270:32:32-p271:32:32-p272:64:64-i64:64-i128:128-f80:128-n8:16:32:64-S128"
target triple = "x86_64-pc-linux-gnu"

; Function Attrs: mustprogress nounwind uwtable
define dso_local noundef zeroext i1 @_ZN7testing8internal6String13CStringEqualsEPKcS3_(ptr noundef %0, ptr noundef %1) #7 align 2 {
  %3 = alloca i1, align 1
  %4 = alloca ptr, align 8
  %5 = alloca ptr, align 8
  store ptr %0, ptr %4, align 8, !tbaa !32
  store ptr %1, ptr %5, align 8, !tbaa !32
  %6 = load ptr, ptr %4, align 8, !tbaa !32
  %7 = icmp eq ptr %6, null
  br i1 %7, label %8, label %11

8:                                                ; preds = %2
  %9 = load ptr, ptr %5, align 8, !tbaa !32
  %10 = icmp eq ptr %9, null
  store i1 %10, ptr %3, align 1
  br label %20

11:                                               ; preds = %2
  %12 = load ptr, ptr %5, align 8, !tbaa !32
  %13 = icmp eq ptr %12, null
  br i1 %13, label %14, label %15

14:                                               ; preds = %11
  store i1 false, ptr %3, align 1
  br label %20

15:                                               ; preds = %11
  %16 = load ptr, ptr %4, align 8, !tbaa !32
  %17 = load ptr, ptr %5, align 8, !tbaa !32
  %18 = call i32 @strcmp(ptr noundef %16, ptr noundef %17) #28
  %19 = icmp eq i32 %18, 0
  store i1 %19, ptr %3, align 1
  br label %20

20:                                               ; preds = %15, %14, %8
  %21 = load i1, ptr %3, align 1
  ret i1 %21
}